(dp0
Vengine
p1
S'pdflatex'
p2
sVpackages
p3
c__builtin__
set
p4
((lp5
Vhyperref
p6
aVindentfirst
p7
aVfancyhdr
p8
aVgeometry
p9
aVlistings
p10
aVlastpage
p11
aVepstopdf
p12
aVgraphicx
p13
atp14
Rp15
sVfiles_with_guttermarks
p16
g4
((lp17
S'mp2.tex'
p18
aV/Users/bracy/Documents/cornell/class/4410/repos/4410/mp/2/release/mp2.tex
p19
atp20
Rp21
sVsynctex
p22
I01
s.